target datalayout = "e-m:e-p270:32:32-p271:32:32-p272:64:64-i64:64-i128:128-f80:128-n8:16:32:64-S128"
target triple = "x86_64-pc-linux-gnu"

%struct._ber_sequence_t = type { ptr, i8, i32, i32, ptr }
%struct._asn1_ctx_t = type { i32, i32, i8, ptr, ptr, ptr, ptr, ptr, %struct.anon, %struct.anon.2, %struct.anon.3, ptr }
%struct.anon = type { i32, i8, i8, i8, ptr, ptr, i32, i32, ptr, ptr, ptr, %union.anon }
%union.anon = type { %struct.anon.0 }
%struct.anon.0 = type { ptr }
%struct.anon.2 = type { ptr, ptr, ptr }
%struct.anon.3 = type { i32, i8, ptr, i32, i32, ptr, ptr, ptr, %union.anon.4 }
%union.anon.4 = type { %struct.anon.5 }
%struct.anon.5 = type { ptr }

@saw_mechanism = hidden global i32 0, align 4
@ett_spnego_MechTypeList = internal global i32 0, align 4
@proto_spnego = internal global i32 0, align 4
@next_level_value = hidden global ptr null, align 8
@MechTypeList_sequence_of = internal constant [1 x %struct._ber_sequence_t] [%struct._ber_sequence_t { ptr @hf_spnego_MechTypeList_item, i8 0, i32 6, i32 4, ptr @dissect_spnego_MechType }], align 16

; Function Attrs: nounwind uwtable
define internal i32 @dissect_spnego_MechTypeList(i1 noundef zeroext %0, ptr noundef %1, i32 noundef %2, ptr noundef %3, ptr noundef %4, i32 noundef %5) #0 {
  %7 = alloca i8, align 1
  %8 = alloca ptr, align 8
  %9 = alloca i32, align 4
  %10 = alloca ptr, align 8
  %11 = alloca ptr, align 8
  %12 = alloca i32, align 4
  %13 = alloca ptr, align 8
  %14 = zext i1 %0 to i8
  store i8 %14, ptr %7, align 1
  store ptr %1, ptr %8, align 8
  store i32 %2, ptr %9, align 4
  store ptr %3, ptr %10, align 8
  store ptr %4, ptr %11, align 8
  store i32 %5, ptr %12, align 4
  store i32 0, ptr @saw_mechanism, align 4
  %15 = load i8, ptr %7, align 1
  %16 = trunc i8 %15 to i1
  %17 = load ptr, ptr %10, align 8
  %18 = load ptr, ptr %11, align 8
  %19 = load ptr, ptr %8, align 8
  %20 = load i32, ptr %9, align 4
  %21 = load i32, ptr %12, align 4
  %22 = load i32, ptr @ett_spnego_MechTypeList, align 4
  %23 = call i32 @dissect_ber_sequence_of(i1 noundef zeroext %16, ptr noundef %17, ptr noundef %18, ptr noundef %19, i32 noundef %20, ptr noundef @MechTypeList_sequence_of, i32 noundef %21, i32 noundef %22)
  store i32 %23, ptr %9, align 4
  %24 = load i32, ptr @saw_mechanism, align 4
  %25 = icmp ne i32 %24, 0
  br i1 %25, label %26, label %34

26:                                               ; preds = %6
  %27 = load ptr, ptr %10, align 8
  %28 = getelementptr inbounds %struct._asn1_ctx_t, ptr %27, i32 0, i32 3
  %29 = load ptr, ptr %28, align 8
  %30 = call nonnull ptr @find_or_create_conversation(ptr noundef %29)
  store ptr %30, ptr %13, align 8
  %31 = load ptr, ptr %13, align 8
  %32 = load i32, ptr @proto_spnego, align 4
  %33 = load ptr, ptr @next_level_value, align 8
  call void @conversation_add_proto_data(ptr noundef %31, i32 noundef %32, ptr noundef %33)
  br label %34

34:                                               ; preds = %26, %6
  %35 = load i32, ptr %9, align 4
  ret i32 %35
}