; Function Attrs: nounwind uwtable
define internal i32 @dissect_spnego_MechTypeList(i1 noundef zeroext %0, ptr noundef %1, i32 noundef %2, ptr noundef %3, ptr noundef %4, i32 noundef %5) #0 {
  store i32 0, ptr @saw_mechanism, align 4
  %7 = load i32, ptr @ett_spnego_MechTypeList, align 4
  %8 = tail call i32 @dissect_ber_sequence_of(i1 noundef zeroext %0, ptr noundef %3, ptr noundef %4, ptr noundef %1, i32 noundef %2, ptr noundef nonnull @MechTypeList_sequence_of, i32 noundef %5, i32 noundef %7) #6
  %9 = load i32, ptr @saw_mechanism, align 4
  %.not = icmp eq i32 %9, 0
  br i1 %.not, label %16, label %10

10:                                               ; preds = %6
  %11 = getelementptr inbounds nuw i8, ptr %3, i64 16
  %12 = load ptr, ptr %11, align 8
  %13 = tail call nonnull ptr @find_or_create_conversation(ptr noundef %12) #6
  %14 = load i32, ptr @proto_spnego, align 4
  %15 = load ptr, ptr @next_level_value, align 8
  tail call void @conversation_add_proto_data(ptr noundef nonnull %13, i32 noundef %14, ptr noundef %15) #6
  br label %16

16:                                               ; preds = %10, %6
  ret i32 %8
}